target datalayout = "e-m:e-p270:32:32-p271:32:32-p272:64:64-i64:64-i128:128-f80:128-n8:16:32:64-S128"
target triple = "x86_64-pc-linux-gnu"

@hf_mbim_set_stk_terminal_response_response_length = internal global i32 0, align 4
@hf_mbim_set_stk_terminal_response_data_buffer = internal global i32 0, align 4
@ett_mbim_buffer = internal global i32 0, align 4
@etsi_cat_handle = internal global ptr null, align 8

; Function Attrs: nounwind uwtable
define internal void @mbim_dissect_set_stk_terminal_response(ptr noundef %0, ptr noundef %1, ptr noundef %2, i32 noundef %3) #0 {
  %5 = alloca ptr, align 8
  %6 = alloca ptr, align 8
  %7 = alloca ptr, align 8
  %8 = alloca i32, align 4
  %9 = alloca ptr, align 8
  %10 = alloca i32, align 4
  %11 = alloca ptr, align 8
  %12 = alloca ptr, align 8
  store ptr %0, ptr %5, align 8
  store ptr %1, ptr %6, align 8
  store ptr %2, ptr %7, align 8
  store i32 %3, ptr %8, align 4
  %13 = load ptr, ptr %7, align 8
  %14 = load i32, ptr @hf_mbim_set_stk_terminal_response_response_length, align 4
  %15 = load ptr, ptr %5, align 8
  %16 = load i32, ptr %8, align 4
  %17 = call ptr @proto_tree_add_item_ret_uint(ptr noundef %13, i32 noundef %14, ptr noundef %15, i32 noundef %16, i32 noundef 4, i32 noundef -2147483648, ptr noundef %10)
  %18 = load i32, ptr %8, align 4
  %19 = add i32 %18, 4
  store i32 %19, ptr %8, align 4
  %20 = load ptr, ptr %7, align 8
  %21 = load i32, ptr @hf_mbim_set_stk_terminal_response_data_buffer, align 4
  %22 = load ptr, ptr %5, align 8
  %23 = load i32, ptr %8, align 4
  %24 = load i32, ptr %10, align 4
  %25 = call ptr @proto_tree_add_item(ptr noundef %20, i32 noundef %21, ptr noundef %22, i32 noundef %23, i32 noundef %24, i32 noundef 0)
  store ptr %25, ptr %11, align 8
  %26 = load ptr, ptr @etsi_cat_handle, align 8
  %27 = icmp ne ptr %26, null
  br i1 %27, label %28, label %41

28:                                               ; preds = %4
  %29 = load ptr, ptr %11, align 8
  %30 = load i32, ptr @ett_mbim_buffer, align 4
  %31 = call ptr @proto_item_add_subtree(ptr noundef %29, i32 noundef %30)
  store ptr %31, ptr %12, align 8
  %32 = load ptr, ptr %5, align 8
  %33 = load i32, ptr %8, align 4
  %34 = load i32, ptr %10, align 4
  %35 = call ptr @tvb_new_subset_length(ptr noundef %32, i32 noundef %33, i32 noundef %34)
  store ptr %35, ptr %9, align 8
  %36 = load ptr, ptr @etsi_cat_handle, align 8
  %37 = load ptr, ptr %9, align 8
  %38 = load ptr, ptr %6, align 8
  %39 = load ptr, ptr %12, align 8
  %40 = call i32 @call_dissector(ptr noundef %36, ptr noundef %37, ptr noundef %38, ptr noundef %39)
  br label %41

41:                                               ; preds = %28, %4
  ret void
}