; Function Attrs: nounwind uwtable
define internal fastcc void @mbim_dissect_set_stk_terminal_response(ptr noundef %0, ptr noundef %1, ptr noundef %2, i32 noundef %3) unnamed_addr #0 {
  %5 = alloca i32, align 4
  %6 = load i32, ptr @hf_mbim_set_stk_terminal_response_response_length, align 4
  %7 = call ptr @proto_tree_add_item_ret_uint(ptr noundef %2, i32 noundef %6, ptr noundef %0, i32 noundef %3, i32 noundef 4, i32 noundef -2147483648, ptr noundef nonnull %5) #10
  %8 = add i32 %3, 4
  %9 = load i32, ptr @hf_mbim_set_stk_terminal_response_data_buffer, align 4
  %10 = load i32, ptr %5, align 4
  %11 = call ptr @proto_tree_add_item(ptr noundef %2, i32 noundef %9, ptr noundef %0, i32 noundef %8, i32 noundef %10, i32 noundef 0) #10
  %12 = load ptr, ptr @etsi_cat_handle, align 8
  %.not = icmp eq ptr %12, null
  br i1 %.not, label %20, label %13

13:                                               ; preds = %4
  %14 = load i32, ptr @ett_mbim_buffer, align 4
  %15 = call ptr @proto_item_add_subtree(ptr noundef %11, i32 noundef %14) #10
  %16 = load i32, ptr %5, align 4
  %17 = call ptr @tvb_new_subset_length(ptr noundef %0, i32 noundef %8, i32 noundef %16) #10
  %18 = load ptr, ptr @etsi_cat_handle, align 8
  %19 = call i32 @call_dissector(ptr noundef %18, ptr noundef %17, ptr noundef %1, ptr noundef %15) #10
  br label %20

20:                                               ; preds = %13, %4
  ret void
}